; Function Attrs: nounwind uwtable
define internal fastcc range(i32 -173, 1) i32 @TLSX_SetSignatureAlgorithmsCert(ptr noundef captures(address_is_null) %0, ptr noundef %1, ptr noundef readnone captures(none) %2) unnamed_addr #0 {
  %4 = icmp eq ptr %0, null
  br i1 %4, label %TLSX_Push.exit, label %5

5:                                                ; preds = %3
  %6 = tail call ptr @wolfSSL_Malloc(i64 noundef 32) #17
  %.not.i.i = icmp eq ptr %6, null
  br i1 %.not.i.i, label %TLSX_Push.exit, label %7

7:                                                ; preds = %5
  store i32 50, ptr %6, align 8, !tbaa !60
  %8 = getelementptr inbounds nuw i8, ptr %6, i64 8
  store ptr %1, ptr %8, align 8, !tbaa !82
  %9 = getelementptr inbounds nuw i8, ptr %6, i64 20
  store i8 0, ptr %9, align 4, !tbaa !83
  %10 = getelementptr inbounds nuw i8, ptr %6, i64 24
  store ptr null, ptr %10, align 8, !tbaa !63
  %11 = load ptr, ptr %0, align 8, !tbaa !59
  store ptr %11, ptr %10, align 8, !tbaa !63
  store ptr %6, ptr %0, align 8, !tbaa !59
  br label %12

12:                                               ; preds = %15, %7
  %.018.i = phi ptr [ %6, %7 ], [ %14, %15 ]
  %13 = getelementptr inbounds nuw i8, ptr %.018.i, i64 24
  %14 = load ptr, ptr %13, align 8, !tbaa !63
  %.not.i = icmp eq ptr %14, null
  br i1 %.not.i, label %TLSX_Push.exit, label %15

15:                                               ; preds = %12
  %16 = load i32, ptr %14, align 8, !tbaa !60
  %17 = icmp eq i32 %16, 50
  br i1 %17, label %18, label %12, !llvm.loop !99

18:                                               ; preds = %15
  %19 = getelementptr inbounds nuw i8, ptr %.018.i, i64 24
  %20 = getelementptr inbounds nuw i8, ptr %14, i64 24
  %21 = load ptr, ptr %20, align 8, !tbaa !63
  store ptr %21, ptr %19, align 8, !tbaa !63
  store ptr null, ptr %20, align 8, !tbaa !63
  tail call void @TLSX_FreeAll(ptr noundef nonnull %14, ptr readnone poison)
  br label %TLSX_Push.exit

TLSX_Push.exit:                                   ; preds = %12, %18, %5, %3
  %.0 = phi i32 [ -173, %3 ], [ 0, %18 ], [ -125, %5 ], [ 0, %12 ]
  ret i32 %.0
}